target datalayout = "e-m:e-p270:32:32-p271:32:32-p272:64:64-i64:64-i128:128-f80:128-n8:16:32:64-S128"
target triple = "x86_64-unknown-linux-gnu"

%"class.google::protobuf::internal::InternalMetadata" = type { i64 }
%union.anon = type { %"struct.google::protobuf::Timestamp::Impl_" }
%"struct.google::protobuf::Timestamp::Impl_" = type { i64, i32, %"class.google::protobuf::internal::CachedSize" }
%"class.google::protobuf::internal::CachedSize" = type { i32 }
%"class.google::protobuf::Timestamp" = type { %"class.google::protobuf::Message", %union.anon }
%"class.google::protobuf::Message" = type { %"class.google::protobuf::MessageLite" }
%"class.google::protobuf::MessageLite" = type { ptr, %"class.google::protobuf::internal::InternalMetadata" }

; Function Attrs: noreturn nounwind uwtable
define linkonce_odr hidden void @__clang_call_terminate(ptr noundef %0) #6 comdat {
  %2 = call ptr @__cxa_begin_catch(ptr %0) #3
  call void @_ZSt9terminatev() #13
  unreachable
}

; Function Attrs: mustprogress nounwind uwtable
define linkonce_odr hidden noundef i32 @_ZN4absl12lts_2023080211countl_zeroImEENSt9enable_ifIXsr3std11is_unsignedIT_EE5valueEiE4typeES3_(i64 noundef %x) #5 comdat personality ptr @__gxx_personality_v0 {
entry:
  %x.addr.i1 = alloca i64, align 8
  %x.addr.i = alloca i64, align 8
  %x.addr = alloca i64, align 8
  store i64 %x, ptr %x.addr, align 8
  %0 = load i64, ptr %x.addr, align 8
  store i64 %0, ptr %x.addr.i, align 8
  %1 = load i64, ptr %x.addr.i, align 8
  store i64 %1, ptr %x.addr.i1, align 8
  %2 = load i64, ptr %x.addr.i1, align 8
  %cmp.i = icmp eq i64 %2, 0
  br i1 %cmp.i, label %cond.true.i, label %cond.false.i

cond.true.i:                                      ; preds = %entry
  br label %_ZN4absl12lts_2023080216numeric_internal20CountLeadingZeroes64Em.exit

cond.false.i:                                     ; preds = %entry
  %3 = load i64, ptr %x.addr.i1, align 8
  %4 = call i64 @llvm.ctlz.i64(i64 %3, i1 true)
  %cast.i = trunc i64 %4 to i32
  br label %_ZN4absl12lts_2023080216numeric_internal20CountLeadingZeroes64Em.exit

_ZN4absl12lts_2023080216numeric_internal20CountLeadingZeroes64Em.exit: ; preds = %cond.false.i, %cond.true.i
  %cond.i = phi i32 [ 64, %cond.true.i ], [ %cast.i, %cond.false.i ]
  br label %invoke.cont

invoke.cont:                                      ; preds = %_ZN4absl12lts_2023080216numeric_internal20CountLeadingZeroes64Em.exit
  ret i32 %cond.i

terminate.lpad:                                   ; No predecessors!
  %5 = landingpad { ptr, i32 }
          catch ptr null
  %6 = extractvalue { ptr, i32 } %5, 0
  call void @__clang_call_terminate(ptr %6) #13
  unreachable
}

; Function Attrs: mustprogress nounwind uwtable
define linkonce_odr hidden noundef i64 @_ZN6google8protobuf2io17CodedOutputStream31VarintSize32SignExtendedPlusOneEi(i32 noundef %value) #5 comdat align 2 {
entry:
  %value.addr = alloca i32, align 4
  store i32 %value, ptr %value.addr, align 4
  %0 = load i32, ptr %value.addr, align 4
  %conv = sext i32 %0 to i64
  %call = call noundef i64 @_ZN6google8protobuf2io17CodedOutputStream19VarintSize64PlusOneEm(i64 noundef %conv)
  ret i64 %call
}

; Function Attrs: mustprogress nounwind uwtable
define linkonce_odr hidden noundef i64 @_ZN6google8protobuf2io17CodedOutputStream19VarintSize64PlusOneEm(i64 noundef %value) #5 comdat align 2 {
entry:
  %value.addr = alloca i64, align 8
  %log2value = alloca i32, align 4
  store i64 %value, ptr %value.addr, align 8
  %0 = load i64, ptr %value.addr, align 8
  %or = or i64 %0, 1
  %call = call noundef i32 @_ZN4absl12lts_2023080211countl_zeroImEENSt9enable_ifIXsr3std11is_unsignedIT_EE5valueEiE4typeES3_(i64 noundef %or) #3
  %sub = sub nsw i32 63, %call
  store i32 %sub, ptr %log2value, align 4
  %1 = load i32, ptr %log2value, align 4
  %mul = mul i32 %1, 9
  %add = add i32 %mul, 73
  %add1 = add i32 %add, 64
  %div = udiv i32 %add1, 64
  %conv = zext i32 %div to i64
  ret i64 %conv
}

; Function Attrs: mustprogress uwtable
define linkonce_odr hidden noundef i64 @_ZN6google8protobuf8internal14WireFormatLite16Int32SizePlusOneEi(i32 noundef %value) #4 comdat align 2 {
entry:
  %value.addr = alloca i32, align 4
  store i32 %value, ptr %value.addr, align 4
  %0 = load i32, ptr %value.addr, align 4
  %call = call noundef i64 @_ZN6google8protobuf2io17CodedOutputStream31VarintSize32SignExtendedPlusOneEi(i32 noundef %0)
  ret i64 %call
}

; Function Attrs: mustprogress nounwind uwtable
define linkonce_odr hidden noundef i32 @_ZNK6google8protobuf9Timestamp15_internal_nanosEv(ptr noundef nonnull align 8 dereferenceable(32) %this) #5 comdat align 2 {
entry:
  %this.addr = alloca ptr, align 8
  store ptr %this, ptr %this.addr, align 8
  %this1 = load ptr, ptr %this.addr, align 8
  %0 = getelementptr inbounds %"class.google::protobuf::Timestamp", ptr %this1, i32 0, i32 1
  %nanos_ = getelementptr inbounds %"struct.google::protobuf::Timestamp::Impl_", ptr %0, i32 0, i32 1
  %1 = load i32, ptr %nanos_, align 8
  ret i32 %1
}

; Function Attrs: mustprogress uwtable
define linkonce_odr hidden noundef i64 @_ZN6google8protobuf8internal14WireFormatLite16Int64SizePlusOneEl(i64 noundef %value) #4 comdat align 2 {
entry:
  %value.addr = alloca i64, align 8
  store i64 %value, ptr %value.addr, align 8
  %0 = load i64, ptr %value.addr, align 8
  %call = call noundef i64 @_ZN6google8protobuf2io17CodedOutputStream19VarintSize64PlusOneEm(i64 noundef %0)
  ret i64 %call
}

; Function Attrs: mustprogress nounwind uwtable
define linkonce_odr hidden noundef i64 @_ZNK6google8protobuf9Timestamp17_internal_secondsEv(ptr noundef nonnull align 8 dereferenceable(32) %this) #5 comdat align 2 {
entry:
  %this.addr = alloca ptr, align 8
  store ptr %this, ptr %this.addr, align 8
  %this1 = load ptr, ptr %this.addr, align 8
  %0 = getelementptr inbounds %"class.google::protobuf::Timestamp", ptr %this1, i32 0, i32 1
  %seconds_ = getelementptr inbounds %"struct.google::protobuf::Timestamp::Impl_", ptr %0, i32 0, i32 0
  %1 = load i64, ptr %seconds_, align 8
  ret i64 %1
}

; Function Attrs: mustprogress uwtable
define noundef i64 @_ZNK6google8protobuf9Timestamp12ByteSizeLongEv(ptr noundef nonnull align 8 dereferenceable(32) %this) unnamed_addr #4 align 2 {
entry:
  %this.addr = alloca ptr, align 8
  %total_size = alloca i64, align 8
  %cached_has_bits = alloca i32, align 4
  store ptr %this, ptr %this.addr, align 8
  %this1 = load ptr, ptr %this.addr, align 8
  store i64 0, ptr %total_size, align 8
  store i32 0, ptr %cached_has_bits, align 4
  %call = call noundef i64 @_ZNK6google8protobuf9Timestamp17_internal_secondsEv(ptr noundef nonnull align 8 dereferenceable(32) %this1)
  %cmp = icmp ne i64 %call, 0
  br i1 %cmp, label %if.then, label %if.end

if.then:                                          ; preds = %entry
  %call2 = call noundef i64 @_ZNK6google8protobuf9Timestamp17_internal_secondsEv(ptr noundef nonnull align 8 dereferenceable(32) %this1)
  %call3 = call noundef i64 @_ZN6google8protobuf8internal14WireFormatLite16Int64SizePlusOneEl(i64 noundef %call2)
  %0 = load i64, ptr %total_size, align 8
  %add = add i64 %0, %call3
  store i64 %add, ptr %total_size, align 8
  br label %if.end

if.end:                                           ; preds = %if.then, %entry
  %call4 = call noundef i32 @_ZNK6google8protobuf9Timestamp15_internal_nanosEv(ptr noundef nonnull align 8 dereferenceable(32) %this1)
  %cmp5 = icmp ne i32 %call4, 0
  br i1 %cmp5, label %if.then6, label %if.end10

if.then6:                                         ; preds = %if.end
  %call7 = call noundef i32 @_ZNK6google8protobuf9Timestamp15_internal_nanosEv(ptr noundef nonnull align 8 dereferenceable(32) %this1)
  %call8 = call noundef i64 @_ZN6google8protobuf8internal14WireFormatLite16Int32SizePlusOneEi(i32 noundef %call7)
  %1 = load i64, ptr %total_size, align 8
  %add9 = add i64 %1, %call8
  store i64 %add9, ptr %total_size, align 8
  br label %if.end10

if.end10:                                         ; preds = %if.then6, %if.end
  %2 = load i64, ptr %total_size, align 8
  %3 = getelementptr inbounds %"class.google::protobuf::Timestamp", ptr %this1, i32 0, i32 1
  %_cached_size_ = getelementptr inbounds %"struct.google::protobuf::Timestamp::Impl_", ptr %3, i32 0, i32 2
  %call11 = call noundef i64 @_ZNK6google8protobuf7Message29MaybeComputeUnknownFieldsSizeEmPNS0_8internal10CachedSizeE(ptr noundef nonnull align 8 dereferenceable(16) %this1, i64 noundef %2, ptr noundef %_cached_size_)
  ret i64 %call11
}